; Function Attrs: nofree norecurse nosync nounwind memory(argmem: read) uwtable
define zeroext i1 @PMIx_Nspace_invalid(ptr noundef readonly captures(address_is_null) %0) local_unnamed_addr #3 {
  %2 = icmp eq ptr %0, null
  br i1 %2, label %pmix_bfrops_base_tma_nspace_invalid.exit, label %.preheader.i.i

.preheader.i.i:                                   ; preds = %1, %5
  %.0711.i.i = phi i64 [ %6, %5 ], [ 0, %1 ]
  %.0810.i.i = phi ptr [ %7, %5 ], [ %0, %1 ]
  %3 = load i8, ptr %.0810.i.i, align 1, !tbaa !3
  %4 = icmp eq i8 %3, 0
  br i1 %4, label %pmix_nslen.exit.i, label %5

5:                                                ; preds = %.preheader.i.i
  %6 = add nuw nsw i64 %.0711.i.i, 1
  %7 = getelementptr inbounds nuw i8, ptr %.0810.i.i, i64 1
  %exitcond.not.i.i = icmp eq i64 %6, 256
  br i1 %exitcond.not.i.i, label %pmix_nslen.exit.i, label %.preheader.i.i, !llvm.loop !8

pmix_nslen.exit.i:                                ; preds = %5, %.preheader.i.i
  %.0.i.i = phi i64 [ %.0711.i.i, %.preheader.i.i ], [ 256, %5 ]
  %8 = icmp eq i64 %.0.i.i, 0
  br label %pmix_bfrops_base_tma_nspace_invalid.exit

pmix_bfrops_base_tma_nspace_invalid.exit:         ; preds = %1, %pmix_nslen.exit.i
  %.0.i = phi i1 [ true, %1 ], [ %8, %pmix_nslen.exit.i ]
  ret i1 %.0.i
}